; Function Attrs: mustprogress uwtable
define internal fastcc noundef nonnull ptr @_ZN7V3Sched12_GLOBAL__N_118profExecSectionPopEP8FileLine(ptr noundef %0) unnamed_addr #3 personality ptr @__gxx_personality_v0 {
  %2 = alloca %"class.std::__cxx11::basic_string", align 8
  %3 = alloca %"class.std::allocator.74", align 1
  %4 = tail call noalias noundef nonnull dereferenceable(152) ptr @_Znwm(i64 noundef 152) #26
  call void @_ZNSaIcEC1Ev(ptr noundef nonnull align 1 dereferenceable(1) %3) #24
  %5 = invoke noundef ptr @_ZNSt7__cxx1112basic_stringIcSt11char_traitsIcESaIcEE13_M_local_dataEv(ptr noundef nonnull align 8 dereferenceable(32) %2)
          to label %.noexc unwind label %13

.noexc:                                           ; preds = %1
  invoke void @_ZNSt7__cxx1112basic_stringIcSt11char_traitsIcESaIcEE12_Alloc_hiderC1EPcRKS3_(ptr noundef nonnull align 8 dereferenceable(8) %2, ptr noundef %5, ptr noundef nonnull align 1 dereferenceable(1) %3)
          to label %.noexc5 unwind label %13

.noexc5:                                          ; preds = %.noexc
  invoke void @_ZNSt7__cxx1112basic_stringIcSt11char_traitsIcESaIcEE12_M_constructIPKcEEvT_S8_St20forward_iterator_tag(ptr noundef nonnull align 8 dereferenceable(32) %2, ptr noundef nonnull @.str.521, ptr noundef nonnull getelementptr inbounds ([49 x i8], ptr @.str.521, i64 0, i64 48))
          to label %_ZNSt7__cxx1112basic_stringIcSt11char_traitsIcESaIcEEC2IS3_EEPKcRKS3_.exit unwind label %6

6:                                                ; preds = %.noexc5
  %7 = landingpad { ptr, i32 }
          cleanup
  call void @_ZNSaIcED2Ev(ptr noundef nonnull align 1 dereferenceable(1) %2) #24
  br label %.body

_ZNSt7__cxx1112basic_stringIcSt11char_traitsIcESaIcEEC2IS3_EEPKcRKS3_.exit: ; preds = %.noexc5
  invoke void @_ZN7AstNodeC2E6VNTypeP8FileLine(ptr noundef nonnull align 8 dereferenceable(152) %4, i16 348, ptr noundef %0)
          to label %.noexc6 unwind label %15

.noexc6:                                          ; preds = %_ZNSt7__cxx1112basic_stringIcSt11char_traitsIcESaIcEEC2IS3_EEPKcRKS3_.exit
  store ptr getelementptr inbounds inrange(-16, 296) ({ [39 x ptr] }, ptr @_ZTV8AstCStmt, i64 0, i32 0, i64 2), ptr %4, align 8
  %8 = invoke noalias noundef nonnull dereferenceable(192) ptr @_Znwm(i64 noundef 192) #26
          to label %.noexc7 unwind label %15

.noexc7:                                          ; preds = %.noexc6
  invoke void @_ZN7AstNodeC2E6VNTypeP8FileLine(ptr noundef nonnull align 8 dereferenceable(152) %8, i16 419, ptr noundef %0)
          to label %.noexc.i unwind label %11

.noexc.i:                                         ; preds = %.noexc7
  store ptr getelementptr inbounds inrange(-16, 296) ({ [39 x ptr] }, ptr @_ZTV11AstNodeText, i64 0, i32 0, i64 2), ptr %8, align 8
  %9 = getelementptr inbounds i8, ptr %8, i64 152
  invoke void @_ZNSt7__cxx1112basic_stringIcSt11char_traitsIcESaIcEEC1ERKS4_(ptr noundef nonnull align 8 dereferenceable(32) %9, ptr noundef nonnull align 8 dereferenceable(32) %2)
          to label %_ZN8AstCStmt9addExprspEP7AstNode.exit.i unwind label %11

_ZN8AstCStmt9addExprspEP7AstNode.exit.i:          ; preds = %.noexc.i
  %10 = getelementptr inbounds i8, ptr %8, i64 184
  store i8 1, ptr %10, align 8
  store ptr getelementptr inbounds inrange(-16, 296) ({ [39 x ptr] }, ptr @_ZTV7AstText, i64 0, i32 0, i64 2), ptr %8, align 8
  invoke void @_ZN7AstNode7addOp1pEPS_(ptr noundef nonnull align 8 dereferenceable(152) %4, ptr noundef nonnull %8)
          to label %_ZN8AstCStmtC2EP8FileLineRKNSt7__cxx1112basic_stringIcSt11char_traitsIcESaIcEEE.exit unwind label %15

11:                                               ; preds = %.noexc.i, %.noexc7
  %12 = landingpad { ptr, i32 }
          cleanup
  call void @_ZdlPv(ptr noundef nonnull %8) #27
  br label %.body9

_ZN8AstCStmtC2EP8FileLineRKNSt7__cxx1112basic_stringIcSt11char_traitsIcESaIcEEE.exit: ; preds = %_ZN8AstCStmt9addExprspEP7AstNode.exit.i
  call void @_ZNSt7__cxx1112basic_stringIcSt11char_traitsIcESaIcEED1Ev(ptr noundef nonnull align 8 dereferenceable(32) %2) #24
  call void @_ZNSaIcED1Ev(ptr noundef nonnull align 1 dereferenceable(1) %3) #24
  ret ptr %4

13:                                               ; preds = %.noexc, %1
  %14 = landingpad { ptr, i32 }
          cleanup
  br label %.body

15:                                               ; preds = %_ZN8AstCStmt9addExprspEP7AstNode.exit.i, %.noexc6, %_ZNSt7__cxx1112basic_stringIcSt11char_traitsIcESaIcEEC2IS3_EEPKcRKS3_.exit
  %16 = landingpad { ptr, i32 }
          cleanup
  br label %.body9

.body9:                                           ; preds = %11, %15
  %eh.lpad-body10 = phi { ptr, i32 } [ %16, %15 ], [ %12, %11 ]
  call void @_ZNSt7__cxx1112basic_stringIcSt11char_traitsIcESaIcEED1Ev(ptr noundef nonnull align 8 dereferenceable(32) %2) #24
  br label %.body

.body:                                            ; preds = %13, %6, %.body9
  %.pn = phi { ptr, i32 } [ %eh.lpad-body10, %.body9 ], [ %14, %13 ], [ %7, %6 ]
  call void @_ZNSaIcED1Ev(ptr noundef nonnull align 1 dereferenceable(1) %3) #24
  call void @_ZdlPv(ptr noundef nonnull %4) #27
  resume { ptr, i32 } %.pn
}